; ModuleID = '32/393.c'
source_filename = "32/393.c"
target datalayout = "e-m:e-p270:32:32-p271:32:32-p272:64:64-i64:64-f80:128-n8:16:32:64-S128"
target triple = "x86_64-pc-linux-gnu"

@.str = private unnamed_addr constant [3 x i8] c"%d\00", align 1
@.str.1 = private unnamed_addr constant [3 x i8] c"%s\00", align 1
@.str.2 = private unnamed_addr constant [4 x i8] c"%s\0A\00", align 1

; Function Attrs: noinline nounwind uwtable
define dso_local void @main() #0 {
  %1 = alloca i32, align 4
  %2 = alloca i32, align 4
  %3 = alloca i32, align 4
  %4 = alloca i32, align 4
  %5 = alloca i32, align 4
  %6 = alloca i32, align 4
  %7 = alloca i32, align 4
  %8 = alloca [101 x [101 x i8]], align 16
  %9 = call i32 (i8*, ...) @__isoc99_scanf(i8* getelementptr inbounds ([3 x i8], [3 x i8]* @.str, i64 0, i64 0), i32* %1)
  store i32 0, i32* %6, align 4
  br label %10

10:                                               ; preds = %21, %0
  %11 = load i32, i32* %6, align 4
  %12 = load i32, i32* %1, align 4
  %13 = mul nsw i32 2, %12
  %14 = icmp slt i32 %11, %13
  br i1 %14, label %15, label %24

15:                                               ; preds = %10
  %16 = load i32, i32* %6, align 4
  %17 = sext i32 %16 to i64
  %18 = getelementptr inbounds [101 x [101 x i8]], [101 x [101 x i8]]* %8, i64 0, i64 %17
  %19 = getelementptr inbounds [101 x i8], [101 x i8]* %18, i64 0, i64 0
  %20 = call i32 (i8*, ...) @__isoc99_scanf(i8* getelementptr inbounds ([3 x i8], [3 x i8]* @.str.1, i64 0, i64 0), i8* %19)
  br label %21

21:                                               ; preds = %15
  %22 = load i32, i32* %6, align 4
  %23 = add nsw i32 %22, 1
  store i32 %23, i32* %6, align 4
  br label %10

24:                                               ; preds = %10
  store i32 0, i32* %2, align 4
  store i32 0, i32* %3, align 4
  store i32 0, i32* %6, align 4
  br label %25

25:                                               ; preds = %144, %24
  %26 = load i32, i32* %6, align 4
  %27 = load i32, i32* %1, align 4
  %28 = mul nsw i32 2, %27
  %29 = sub nsw i32 %28, 1
  %30 = icmp slt i32 %26, %29
  br i1 %30, label %31, label %147

31:                                               ; preds = %25
  %32 = load i32, i32* %6, align 4
  %33 = sext i32 %32 to i64
  %34 = getelementptr inbounds [101 x [101 x i8]], [101 x [101 x i8]]* %8, i64 0, i64 %33
  %35 = getelementptr inbounds [101 x i8], [101 x i8]* %34, i64 0, i64 0
  %36 = call i64 @strlen(i8* %35) #3
  %37 = trunc i64 %36 to i32
  store i32 %37, i32* %2, align 4
  %38 = load i32, i32* %6, align 4
  %39 = add nsw i32 %38, 1
  %40 = sext i32 %39 to i64
  %41 = getelementptr inbounds [101 x [101 x i8]], [101 x [101 x i8]]* %8, i64 0, i64 %40
  %42 = getelementptr inbounds [101 x i8], [101 x i8]* %41, i64 0, i64 0
  %43 = call i64 @strlen(i8* %42) #3
  %44 = trunc i64 %43 to i32
  store i32 %44, i32* %3, align 4
  %45 = load i32, i32* %3, align 4
  store i32 %45, i32* %7, align 4
  br label %46

46:                                               ; preds = %69, %31
  %47 = load i32, i32* %7, align 4
  %48 = icmp sge i32 %47, 0
  br i1 %48, label %49, label %72

49:                                               ; preds = %46
  %50 = load i32, i32* %6, align 4
  %51 = add nsw i32 %50, 1
  %52 = sext i32 %51 to i64
  %53 = getelementptr inbounds [101 x [101 x i8]], [101 x [101 x i8]]* %8, i64 0, i64 %52
  %54 = load i32, i32* %7, align 4
  %55 = sext i32 %54 to i64
  %56 = getelementptr inbounds [101 x i8], [101 x i8]* %53, i64 0, i64 %55
  %57 = load i8, i8* %56, align 1
  %58 = load i32, i32* %6, align 4
  %59 = add nsw i32 %58, 1
  %60 = sext i32 %59 to i64
  %61 = getelementptr inbounds [101 x [101 x i8]], [101 x [101 x i8]]* %8, i64 0, i64 %60
  %62 = load i32, i32* %2, align 4
  %63 = load i32, i32* %3, align 4
  %64 = sub nsw i32 %62, %63
  %65 = load i32, i32* %7, align 4
  %66 = add nsw i32 %64, %65
  %67 = sext i32 %66 to i64
  %68 = getelementptr inbounds [101 x i8], [101 x i8]* %61, i64 0, i64 %67
  store i8 %57, i8* %68, align 1
  br label %69

69:                                               ; preds = %49
  %70 = load i32, i32* %7, align 4
  %71 = add nsw i32 %70, -1
  store i32 %71, i32* %7, align 4
  br label %46

72:                                               ; preds = %46
  store i32 0, i32* %7, align 4
  br label %73

73:                                               ; preds = %87, %72
  %74 = load i32, i32* %7, align 4
  %75 = load i32, i32* %2, align 4
  %76 = load i32, i32* %3, align 4
  %77 = sub nsw i32 %75, %76
  %78 = icmp slt i32 %74, %77
  br i1 %78, label %79, label %90

79:                                               ; preds = %73
  %80 = load i32, i32* %6, align 4
  %81 = add nsw i32 %80, 1
  %82 = sext i32 %81 to i64
  %83 = getelementptr inbounds [101 x [101 x i8]], [101 x [101 x i8]]* %8, i64 0, i64 %82
  %84 = load i32, i32* %7, align 4
  %85 = sext i32 %84 to i64
  %86 = getelementptr inbounds [101 x i8], [101 x i8]* %83, i64 0, i64 %85
  store i8 48, i8* %86, align 1
  br label %87

87:                                               ; preds = %79
  %88 = load i32, i32* %7, align 4
  %89 = add nsw i32 %88, 1
  store i32 %89, i32* %7, align 4
  br label %73

90:                                               ; preds = %73
  store i32 0, i32* %4, align 4
  store i32 0, i32* %5, align 4
  %91 = load i32, i32* %2, align 4
  %92 = sub nsw i32 %91, 1
  store i32 %92, i32* %7, align 4
  br label %93

93:                                               ; preds = %135, %90
  %94 = load i32, i32* %7, align 4
  %95 = icmp sge i32 %94, 0
  br i1 %95, label %96, label %138

96:                                               ; preds = %93
  %97 = load i32, i32* %6, align 4
  %98 = sext i32 %97 to i64
  %99 = getelementptr inbounds [101 x [101 x i8]], [101 x [101 x i8]]* %8, i64 0, i64 %98
  %100 = load i32, i32* %7, align 4
  %101 = sext i32 %100 to i64
  %102 = getelementptr inbounds [101 x i8], [101 x i8]* %99, i64 0, i64 %101
  %103 = load i8, i8* %102, align 1
  %104 = sext i8 %103 to i32
  %105 = add nsw i32 10, %104
  %106 = sub nsw i32 %105, 48
  %107 = load i32, i32* %6, align 4
  %108 = add nsw i32 %107, 1
  %109 = sext i32 %108 to i64
  %110 = getelementptr inbounds [101 x [101 x i8]], [101 x [101 x i8]]* %8, i64 0, i64 %109
  %111 = load i32, i32* %7, align 4
  %112 = sext i32 %111 to i64
  %113 = getelementptr inbounds [101 x i8], [101 x i8]* %110, i64 0, i64 %112
  %114 = load i8, i8* %113, align 1
  %115 = sext i8 %114 to i32
  %116 = sub nsw i32 %115, 48
  %117 = sub nsw i32 %106, %116
  %118 = load i32, i32* %5, align 4
  %119 = sub nsw i32 %117, %118
  store i32 %119, i32* %4, align 4
  %120 = load i32, i32* %4, align 4
  %121 = srem i32 %120, 10
  %122 = add nsw i32 %121, 48
  %123 = trunc i32 %122 to i8
  %124 = load i32, i32* %6, align 4
  %125 = sext i32 %124 to i64
  %126 = getelementptr inbounds [101 x [101 x i8]], [101 x [101 x i8]]* %8, i64 0, i64 %125
  %127 = load i32, i32* %7, align 4
  %128 = sext i32 %127 to i64
  %129 = getelementptr inbounds [101 x i8], [101 x i8]* %126, i64 0, i64 %128
  store i8 %123, i8* %129, align 1
  %130 = load i32, i32* %4, align 4
  %131 = icmp slt i32 %130, 10
  br i1 %131, label %132, label %133

132:                                              ; preds = %96
  store i32 1, i32* %5, align 4
  br label %134

133:                                              ; preds = %96
  store i32 0, i32* %5, align 4
  br label %134

134:                                              ; preds = %133, %132
  br label %135

135:                                              ; preds = %134
  %136 = load i32, i32* %7, align 4
  %137 = add nsw i32 %136, -1
  store i32 %137, i32* %7, align 4
  br label %93

138:                                              ; preds = %93
  %139 = load i32, i32* %6, align 4
  %140 = sext i32 %139 to i64
  %141 = getelementptr inbounds [101 x [101 x i8]], [101 x [101 x i8]]* %8, i64 0, i64 %140
  %142 = getelementptr inbounds [101 x i8], [101 x i8]* %141, i64 0, i64 0
  %143 = call i32 (i8*, ...) @printf(i8* getelementptr inbounds ([4 x i8], [4 x i8]* @.str.2, i64 0, i64 0), i8* %142)
  br label %144

144:                                              ; preds = %138
  %145 = load i32, i32* %6, align 4
  %146 = add nsw i32 %145, 2
  store i32 %146, i32* %6, align 4
  br label %25

147:                                              ; preds = %25
  ret void
}

declare dso_local i32 @__isoc99_scanf(i8*, ...) #1

; Function Attrs: nounwind readonly
declare dso_local i64 @strlen(i8*) #2

declare dso_local i32 @printf(i8*, ...) #1


!llvm.module.flags = !{!0}
!llvm.ident = !{!1}

!0 = !{i32 1, !"wchar_size", i32 4}
!1 = !{!"clang version 10.0.0-4ubuntu1 "}
